target datalayout = "e-m:e-p270:32:32-p271:32:32-p272:64:64-i64:64-i128:128-f80:128-n8:16:32:64-S128"
target triple = "x86_64-pc-linux-gnu"

%struct.RangeBound = type { i64, i8, i8, i8 }

; Function Attrs: inlinehint nounwind uwtable
define internal ptr @DatumGetPointer(i64 noundef %0) #2 {
  %2 = alloca i64, align 8
  store i64 %0, ptr %2, align 8
  %3 = load i64, ptr %2, align 8
  %4 = inttoptr i64 %3 to ptr
  ret ptr %4
}

; Function Attrs: inlinehint nounwind uwtable
define internal i64 @PointerGetDatum(ptr noundef %0) #2 {
  %2 = alloca ptr, align 8
  store ptr %0, ptr %2, align 8
  %3 = load ptr, ptr %2, align 8
  %4 = ptrtoint ptr %3 to i64
  ret i64 %4
}

; Function Attrs: nounwind uwtable
define internal ptr @range_super_union(ptr noundef %0, ptr noundef %1, ptr noundef %2) #0 {
  %4 = alloca ptr, align 8
  %5 = alloca ptr, align 8
  %6 = alloca ptr, align 8
  %7 = alloca ptr, align 8
  %8 = alloca ptr, align 8
  %9 = alloca %struct.RangeBound, align 8
  %10 = alloca %struct.RangeBound, align 8
  %11 = alloca %struct.RangeBound, align 8
  %12 = alloca %struct.RangeBound, align 8
  %13 = alloca i8, align 1
  %14 = alloca i8, align 1
  %15 = alloca i8, align 1
  %16 = alloca i8, align 1
  %17 = alloca ptr, align 8
  %18 = alloca ptr, align 8
  %19 = alloca i32, align 4
  store ptr %0, ptr %5, align 8
  store ptr %1, ptr %6, align 8
  store ptr %2, ptr %7, align 8
  call void @llvm.lifetime.start.p0(i64 8, ptr %8) #8
  call void @llvm.lifetime.start.p0(i64 16, ptr %9) #8
  call void @llvm.lifetime.start.p0(i64 16, ptr %10) #8
  call void @llvm.lifetime.start.p0(i64 16, ptr %11) #8
  call void @llvm.lifetime.start.p0(i64 16, ptr %12) #8
  call void @llvm.lifetime.start.p0(i64 1, ptr %13) #8
  call void @llvm.lifetime.start.p0(i64 1, ptr %14) #8
  call void @llvm.lifetime.start.p0(i64 1, ptr %15) #8
  call void @llvm.lifetime.start.p0(i64 1, ptr %16) #8
  call void @llvm.lifetime.start.p0(i64 8, ptr %17) #8
  call void @llvm.lifetime.start.p0(i64 8, ptr %18) #8
  %20 = load ptr, ptr %5, align 8
  %21 = load ptr, ptr %6, align 8
  call void @range_deserialize(ptr noundef %20, ptr noundef %21, ptr noundef %9, ptr noundef %11, ptr noundef %13)
  %22 = load ptr, ptr %5, align 8
  %23 = load ptr, ptr %7, align 8
  call void @range_deserialize(ptr noundef %22, ptr noundef %23, ptr noundef %10, ptr noundef %12, ptr noundef %14)
  %24 = load ptr, ptr %6, align 8
  %25 = call signext i8 @range_get_flags(ptr noundef %24)
  store i8 %25, ptr %15, align 1
  %26 = load ptr, ptr %7, align 8
  %27 = call signext i8 @range_get_flags(ptr noundef %26)
  store i8 %27, ptr %16, align 1
  %28 = load i8, ptr %13, align 1, !range !4, !noundef !5
  %29 = trunc i8 %28 to i1
  br i1 %29, label %30, label %44

30:                                               ; preds = %3
  %31 = load i8, ptr %16, align 1
  %32 = sext i8 %31 to i32
  %33 = and i32 %32, 129
  %34 = icmp ne i32 %33, 0
  br i1 %34, label %35, label %37

35:                                               ; preds = %30
  %36 = load ptr, ptr %7, align 8
  store ptr %36, ptr %4, align 8
  store i32 1, ptr %19, align 4
  br label %127

37:                                               ; preds = %30
  %38 = load ptr, ptr %7, align 8
  %39 = call i64 @PointerGetDatum(ptr noundef %38)
  %40 = call i64 @datumCopy(i64 noundef %39, i1 noundef zeroext false, i32 noundef -1)
  %41 = call ptr @DatumGetPointer(i64 noundef %40)
  store ptr %41, ptr %7, align 8
  %42 = load ptr, ptr %7, align 8
  call void @range_set_contain_empty(ptr noundef %42)
  %43 = load ptr, ptr %7, align 8
  store ptr %43, ptr %4, align 8
  store i32 1, ptr %19, align 4
  br label %127

44:                                               ; preds = %3
  %45 = load i8, ptr %14, align 1, !range !4, !noundef !5
  %46 = trunc i8 %45 to i1
  br i1 %46, label %47, label %61

47:                                               ; preds = %44
  %48 = load i8, ptr %15, align 1
  %49 = sext i8 %48 to i32
  %50 = and i32 %49, 129
  %51 = icmp ne i32 %50, 0
  br i1 %51, label %52, label %54

52:                                               ; preds = %47
  %53 = load ptr, ptr %6, align 8
  store ptr %53, ptr %4, align 8
  store i32 1, ptr %19, align 4
  br label %127

54:                                               ; preds = %47
  %55 = load ptr, ptr %6, align 8
  %56 = call i64 @PointerGetDatum(ptr noundef %55)
  %57 = call i64 @datumCopy(i64 noundef %56, i1 noundef zeroext false, i32 noundef -1)
  %58 = call ptr @DatumGetPointer(i64 noundef %57)
  store ptr %58, ptr %6, align 8
  %59 = load ptr, ptr %6, align 8
  call void @range_set_contain_empty(ptr noundef %59)
  %60 = load ptr, ptr %6, align 8
  store ptr %60, ptr %4, align 8
  store i32 1, ptr %19, align 4
  br label %127

61:                                               ; preds = %44
  %62 = load ptr, ptr %5, align 8
  %63 = call i32 @range_cmp_bounds(ptr noundef %62, ptr noundef %9, ptr noundef %10)
  %64 = icmp sle i32 %63, 0
  br i1 %64, label %65, label %66

65:                                               ; preds = %61
  store ptr %9, ptr %17, align 8
  br label %67

66:                                               ; preds = %61
  store ptr %10, ptr %17, align 8
  br label %67

67:                                               ; preds = %66, %65
  %68 = load ptr, ptr %5, align 8
  %69 = call i32 @range_cmp_bounds(ptr noundef %68, ptr noundef %11, ptr noundef %12)
  %70 = icmp sge i32 %69, 0
  br i1 %70, label %71, label %72

71:                                               ; preds = %67
  store ptr %11, ptr %18, align 8
  br label %73

72:                                               ; preds = %67
  store ptr %12, ptr %18, align 8
  br label %73

73:                                               ; preds = %72, %71
  %74 = load ptr, ptr %17, align 8
  %75 = icmp eq ptr %74, %9
  br i1 %75, label %76, label %91

76:                                               ; preds = %73
  %77 = load ptr, ptr %18, align 8
  %78 = icmp eq ptr %77, %11
  br i1 %78, label %79, label %91

79:                                               ; preds = %76
  %80 = load i8, ptr %15, align 1
  %81 = sext i8 %80 to i32
  %82 = and i32 %81, 128
  %83 = icmp ne i32 %82, 0
  br i1 %83, label %89, label %84

84:                                               ; preds = %79
  %85 = load i8, ptr %16, align 1
  %86 = sext i8 %85 to i32
  %87 = and i32 %86, 128
  %88 = icmp ne i32 %87, 0
  br i1 %88, label %91, label %89

89:                                               ; preds = %84, %79
  %90 = load ptr, ptr %6, align 8
  store ptr %90, ptr %4, align 8
  store i32 1, ptr %19, align 4
  br label %127

91:                                               ; preds = %84, %76, %73
  %92 = load ptr, ptr %17, align 8
  %93 = icmp eq ptr %92, %10
  br i1 %93, label %94, label %109

94:                                               ; preds = %91
  %95 = load ptr, ptr %18, align 8
  %96 = icmp eq ptr %95, %12
  br i1 %96, label %97, label %109

97:                                               ; preds = %94
  %98 = load i8, ptr %16, align 1
  %99 = sext i8 %98 to i32
  %100 = and i32 %99, 128
  %101 = icmp ne i32 %100, 0
  br i1 %101, label %107, label %102

102:                                              ; preds = %97
  %103 = load i8, ptr %15, align 1
  %104 = sext i8 %103 to i32
  %105 = and i32 %104, 128
  %106 = icmp ne i32 %105, 0
  br i1 %106, label %109, label %107

107:                                              ; preds = %102, %97
  %108 = load ptr, ptr %7, align 8
  store ptr %108, ptr %4, align 8
  store i32 1, ptr %19, align 4
  br label %127

109:                                              ; preds = %102, %94, %91
  %110 = load ptr, ptr %5, align 8
  %111 = load ptr, ptr %17, align 8
  %112 = load ptr, ptr %18, align 8
  %113 = call ptr @make_range(ptr noundef %110, ptr noundef %111, ptr noundef %112, i1 noundef zeroext false, ptr noundef null)
  store ptr %113, ptr %8, align 8
  %114 = load i8, ptr %15, align 1
  %115 = sext i8 %114 to i32
  %116 = and i32 %115, 128
  %117 = icmp ne i32 %116, 0
  br i1 %117, label %123, label %118

118:                                              ; preds = %109
  %119 = load i8, ptr %16, align 1
  %120 = sext i8 %119 to i32
  %121 = and i32 %120, 128
  %122 = icmp ne i32 %121, 0
  br i1 %122, label %123, label %125

123:                                              ; preds = %118, %109
  %124 = load ptr, ptr %8, align 8
  call void @range_set_contain_empty(ptr noundef %124)
  br label %125

125:                                              ; preds = %123, %118
  %126 = load ptr, ptr %8, align 8
  store ptr %126, ptr %4, align 8
  store i32 1, ptr %19, align 4
  br label %127

127:                                              ; preds = %125, %107, %89, %54, %52, %37, %35
  call void @llvm.lifetime.end.p0(i64 8, ptr %18) #8
  call void @llvm.lifetime.end.p0(i64 8, ptr %17) #8
  call void @llvm.lifetime.end.p0(i64 1, ptr %16) #8
  call void @llvm.lifetime.end.p0(i64 1, ptr %15) #8
  call void @llvm.lifetime.end.p0(i64 1, ptr %14) #8
  call void @llvm.lifetime.end.p0(i64 1, ptr %13) #8
  call void @llvm.lifetime.end.p0(i64 16, ptr %12) #8
  call void @llvm.lifetime.end.p0(i64 16, ptr %11) #8
  call void @llvm.lifetime.end.p0(i64 16, ptr %10) #8
  call void @llvm.lifetime.end.p0(i64 16, ptr %9) #8
  call void @llvm.lifetime.end.p0(i64 8, ptr %8) #8
  %128 = load ptr, ptr %4, align 8
  ret ptr %128
}