; Function Attrs: nounwind uwtable
define internal fastcc ptr @range_super_union(ptr noundef %0, ptr noundef %1, ptr noundef %2) unnamed_addr #0 {
  %4 = alloca %struct.RangeBound, align 8
  %5 = alloca %struct.RangeBound, align 8
  %6 = alloca %struct.RangeBound, align 8
  %7 = alloca %struct.RangeBound, align 8
  %8 = alloca i8, align 1
  %9 = alloca i8, align 1
  call void @llvm.lifetime.start.p0(i64 16, ptr nonnull %4) #10
  call void @llvm.lifetime.start.p0(i64 16, ptr nonnull %5) #10
  call void @llvm.lifetime.start.p0(i64 16, ptr nonnull %6) #10
  call void @llvm.lifetime.start.p0(i64 16, ptr nonnull %7) #10
  call void @llvm.lifetime.start.p0(i64 1, ptr nonnull %8) #10
  call void @llvm.lifetime.start.p0(i64 1, ptr nonnull %9) #10
  call void @range_deserialize(ptr noundef %0, ptr noundef %1, ptr noundef nonnull %4, ptr noundef nonnull %6, ptr noundef nonnull %8) #10
  call void @range_deserialize(ptr noundef %0, ptr noundef %2, ptr noundef nonnull %5, ptr noundef nonnull %7, ptr noundef nonnull %9) #10
  %10 = call signext i8 @range_get_flags(ptr noundef %1) #10
  %11 = call signext i8 @range_get_flags(ptr noundef %2) #10
  %12 = load i8, ptr %8, align 1, !range !4, !noundef !5
  %13 = trunc nuw i8 %12 to i1
  br i1 %13, label %14, label %16

14:                                               ; preds = %3
  %15 = and i8 %11, -127
  %.not46 = icmp eq i8 %15, 0
  br i1 %.not46, label %.sink.split.sink.split, label %33

16:                                               ; preds = %3
  %17 = load i8, ptr %9, align 1, !range !4, !noundef !5
  %18 = trunc nuw i8 %17 to i1
  br i1 %18, label %19, label %21

19:                                               ; preds = %16
  %20 = and i8 %10, -127
  %.not45 = icmp eq i8 %20, 0
  br i1 %.not45, label %.sink.split.sink.split, label %33

21:                                               ; preds = %16
  %22 = call i32 @range_cmp_bounds(ptr noundef %0, ptr noundef nonnull %4, ptr noundef nonnull %5) #10
  %23 = icmp slt i32 %22, 1
  %. = select i1 %23, ptr %4, ptr %5
  %24 = call i32 @range_cmp_bounds(ptr noundef %0, ptr noundef nonnull %6, ptr noundef nonnull %7) #10
  %25 = icmp sgt i32 %24, -1
  %.0 = select i1 %25, ptr %6, ptr %7
  %or.cond = and i1 %23, %25
  br i1 %or.cond, label %26, label %27

26:                                               ; preds = %21
  %.not = icmp slt i8 %10, 0
  %.not40 = icmp sgt i8 %11, -1
  %or.cond47 = select i1 %.not, i1 true, i1 %.not40
  br i1 %or.cond47, label %33, label %.thread

27:                                               ; preds = %21
  %or.cond3.demorgan = or i1 %23, %25
  br i1 %or.cond3.demorgan, label %.thread, label %28

28:                                               ; preds = %27
  %.not41 = icmp slt i8 %11, 0
  %.not42 = icmp sgt i8 %10, -1
  %or.cond48 = select i1 %.not41, i1 true, i1 %.not42
  br i1 %or.cond48, label %33, label %.thread

.thread:                                          ; preds = %26, %28, %27
  %29 = call ptr @make_range(ptr noundef %0, ptr noundef nonnull %., ptr noundef nonnull %.0, i1 noundef zeroext false, ptr noundef null) #10
  %.not43 = icmp sgt i8 %10, -1
  %.not44 = icmp sgt i8 %11, -1
  %or.cond49 = select i1 %.not43, i1 %.not44, i1 false
  br i1 %or.cond49, label %33, label %.sink.split

.sink.split.sink.split:                           ; preds = %19, %14
  %.sink54 = phi ptr [ %2, %14 ], [ %1, %19 ]
  %30 = ptrtoint ptr %.sink54 to i64
  %31 = call i64 @datumCopy(i64 noundef %30, i1 noundef zeroext false, i32 noundef -1) #10
  %32 = inttoptr i64 %31 to ptr
  br label %.sink.split

.sink.split:                                      ; preds = %.sink.split.sink.split, %.thread
  %.sink = phi ptr [ %29, %.thread ], [ %32, %.sink.split.sink.split ]
  call void @range_set_contain_empty(ptr noundef %.sink) #10
  br label %33

33:                                               ; preds = %.sink.split, %.thread, %28, %26, %19, %14
  %.039 = phi ptr [ %2, %14 ], [ %1, %19 ], [ %1, %26 ], [ %2, %28 ], [ %29, %.thread ], [ %.sink, %.sink.split ]
  call void @llvm.lifetime.end.p0(i64 1, ptr nonnull %9) #10
  call void @llvm.lifetime.end.p0(i64 1, ptr nonnull %8) #10
  call void @llvm.lifetime.end.p0(i64 16, ptr nonnull %7) #10
  call void @llvm.lifetime.end.p0(i64 16, ptr nonnull %6) #10
  call void @llvm.lifetime.end.p0(i64 16, ptr nonnull %5) #10
  call void @llvm.lifetime.end.p0(i64 16, ptr nonnull %4) #10
  ret ptr %.039
}